; Function Attrs: mustprogress uwtable
define void @_ZN31MLRenderingSolidParametersFrame11actionsListER5QListIP17MLRenderingActionE(ptr nocapture noundef nonnull readonly align 8 dereferenceable(120) %0, ptr noundef nonnull align 8 dereferenceable(8) %1) unnamed_addr #3 align 2 {
  %3 = alloca ptr, align 8
  %4 = getelementptr inbounds i8, ptr %0, i64 64
  %5 = load ptr, ptr %4, align 8
  %6 = getelementptr inbounds i8, ptr %5, i64 48
  %7 = tail call noundef nonnull align 8 dereferenceable(8) ptr @_ZN5QListIP17MLRenderingActionEpLERKS2_(ptr noundef nonnull align 8 dereferenceable(8) %1, ptr noundef nonnull align 8 dereferenceable(8) %6)
  %8 = getelementptr inbounds i8, ptr %0, i64 80
  %9 = load ptr, ptr %8, align 8
  %10 = getelementptr inbounds i8, ptr %9, i64 48
  %11 = tail call noundef nonnull align 8 dereferenceable(8) ptr @_ZN5QListIP17MLRenderingActionEpLERKS2_(ptr noundef nonnull align 8 dereferenceable(8) %1, ptr noundef nonnull align 8 dereferenceable(8) %10)
  %12 = getelementptr inbounds i8, ptr %0, i64 96
  %13 = load ptr, ptr %12, align 8
  %14 = getelementptr inbounds i8, ptr %13, i64 48
  %15 = tail call noundef nonnull align 8 dereferenceable(8) ptr @_ZN5QListIP17MLRenderingActionEpLERKS2_(ptr noundef nonnull align 8 dereferenceable(8) %1, ptr noundef nonnull align 8 dereferenceable(8) %14)
  %16 = getelementptr inbounds i8, ptr %0, i64 112
  %17 = load ptr, ptr %16, align 8
  %18 = getelementptr inbounds i8, ptr %17, i64 56
  %19 = load ptr, ptr %18, align 8
  store ptr %19, ptr %3, align 8
  call void @_ZN5QListIP17MLRenderingActionE6appendERKS1_(ptr noundef nonnull align 8 dereferenceable(8) %1, ptr noundef nonnull align 8 dereferenceable(8) %3)
  ret void
}